; Function Attrs: mustprogress nounwind uwtable
define hidden void @_ZN13ClassVerifier12verify_dloadEiP13StackMapFrameP10JavaThread(ptr nocapture noundef nonnull readonly align 8 dereferenceable(8192) %0, i32 noundef %1, ptr noundef nonnull %2, ptr noundef %3) local_unnamed_addr #1 align 2 {
  %5 = alloca %class.ErrorContext, align 8
  tail call void @_ZN13StackMapFrame11get_local_2Ei16VerificationTypeS0_P10JavaThread(ptr noundef nonnull align 8 dereferenceable(48) %2, i32 noundef %1, ptr nonnull inttoptr (i64 197121 to ptr), ptr nonnull inttoptr (i64 918529 to ptr), ptr noundef %3) #20
  %6 = getelementptr inbounds i8, ptr %3, i64 8
  %7 = load ptr, ptr %6, align 8
  %.not = icmp eq ptr %7, null
  %8 = getelementptr inbounds i8, ptr %0, i64 24
  %9 = load ptr, ptr %8, align 8
  %.not10 = icmp eq ptr %9, null
  %or.cond = select i1 %.not, i1 %.not10, i1 false
  br i1 %or.cond, label %10, label %39

10:                                               ; preds = %4
  call void @llvm.lifetime.start.p0(i64 56, ptr nonnull %5)
  %11 = getelementptr inbounds i8, ptr %2, i64 8
  %12 = load i32, ptr %11, align 8
  %13 = getelementptr inbounds i8, ptr %2, i64 18
  %14 = load i16, ptr %13, align 2
  %15 = zext i16 %14 to i32
  %16 = add nsw i32 %15, -1
  %.not.i = icmp slt i32 %12, %16
  br i1 %.not.i, label %28, label %17

17:                                               ; preds = %10
  %18 = getelementptr inbounds i8, ptr %2, i64 40
  %19 = load ptr, ptr %18, align 8
  %20 = load i32, ptr %2, align 8
  tail call void @llvm.experimental.noalias.scope.decl(metadata !236)
  %21 = tail call noundef ptr @_Z23resource_allocate_bytesmN17AllocFailStrategy13AllocFailEnumE(i64 noundef 48, i32 noundef 0) #20, !noalias !239
  tail call void @_ZN13StackMapFrameC2ERKS_(ptr noundef nonnull align 8 dereferenceable(48) %21, ptr noundef nonnull align 8 dereferenceable(48) %2), !noalias !239
  store i32 %20, ptr %5, align 8, !alias.scope !236
  %22 = getelementptr inbounds i8, ptr %5, i64 4
  store i32 7, ptr %22, align 4, !alias.scope !236
  %23 = getelementptr inbounds i8, ptr %5, i64 8
  store i32 8, ptr %23, align 8, !alias.scope !236
  %.sroa.42.0..sroa_idx.i.i = getelementptr inbounds i8, ptr %5, i64 12
  store i32 0, ptr %.sroa.42.0..sroa_idx.i.i, align 4, !alias.scope !236
  %.sroa.5.0..sroa_idx.i.i = getelementptr inbounds i8, ptr %5, i64 16
  store ptr %21, ptr %.sroa.5.0..sroa_idx.i.i, align 8, !alias.scope !236
  %.sroa.6.0..sroa_idx.i.i = getelementptr inbounds i8, ptr %5, i64 24
  store ptr inttoptr (i64 4294901761 to ptr), ptr %.sroa.6.0..sroa_idx.i.i, align 8, !alias.scope !236
  %24 = getelementptr inbounds i8, ptr %5, i64 32
  store i32 9, ptr %24, align 8, !alias.scope !236
  %25 = getelementptr inbounds i8, ptr %5, i64 36
  store i32 0, ptr %25, align 4, !alias.scope !236
  %26 = getelementptr inbounds i8, ptr %5, i64 40
  store ptr null, ptr %26, align 8, !alias.scope !236
  %27 = getelementptr inbounds i8, ptr %5, i64 48
  store ptr inttoptr (i64 4294901761 to ptr), ptr %27, align 8, !alias.scope !236
  tail call void (ptr, ptr, ptr, ...) @_ZN13ClassVerifier12verify_errorE12ErrorContextPKcz(ptr noundef nonnull align 8 dereferenceable(8192) %19, ptr noundef nonnull byval(%class.ErrorContext) align 8 %5, ptr noundef nonnull @.str.181)
  br label %_ZN13StackMapFrame12push_stack_2E16VerificationTypeS0_P10JavaThread.exit

28:                                               ; preds = %10
  %29 = getelementptr inbounds i8, ptr %2, i64 32
  %30 = load ptr, ptr %29, align 8
  %31 = add nsw i32 %12, 1
  store i32 %31, ptr %11, align 8
  %32 = sext i32 %12 to i64
  %33 = getelementptr inbounds %class.VerificationType, ptr %30, i64 %32
  store ptr inttoptr (i64 197121 to ptr), ptr %33, align 8
  %34 = load ptr, ptr %29, align 8
  %35 = load i32, ptr %11, align 8
  %36 = add nsw i32 %35, 1
  store i32 %36, ptr %11, align 8
  %37 = sext i32 %35 to i64
  %38 = getelementptr inbounds %class.VerificationType, ptr %34, i64 %37
  store ptr inttoptr (i64 918529 to ptr), ptr %38, align 8
  br label %_ZN13StackMapFrame12push_stack_2E16VerificationTypeS0_P10JavaThread.exit

_ZN13StackMapFrame12push_stack_2E16VerificationTypeS0_P10JavaThread.exit: ; preds = %17, %28
  call void @llvm.lifetime.end.p0(i64 56, ptr nonnull %5)
  br label %39

39:                                               ; preds = %_ZN13StackMapFrame12push_stack_2E16VerificationTypeS0_P10JavaThread.exit, %4
  ret void
}